; Function Attrs: mustprogress uwtable
define void @_ZN17grpc_event_engine12experimental33ResolvedAddressToNormalizedStringB5cxx11ERKNS0_11EventEngine15ResolvedAddressE(ptr dead_on_unwind noalias writable sret(%"class.absl::lts_20240722::StatusOr") align 8 %0, ptr noundef nonnull align 4 dereferenceable(132) %1) local_unnamed_addr #3 {
  %3 = alloca %"class.grpc_event_engine::experimental::EventEngine::ResolvedAddress", align 4
  %4 = alloca %"class.grpc_event_engine::experimental::EventEngine::ResolvedAddress", align 4
  call void @llvm.lifetime.start.p0(i64 132, ptr nonnull %4) #25
  call void @llvm.memset.p0.i64(ptr noundef nonnull align 4 dereferenceable(132) %4, i8 0, i64 132, i1 false)
  %5 = tail call noundef ptr @_ZNK17grpc_event_engine12experimental11EventEngine15ResolvedAddress7addressEv(ptr noundef nonnull align 4 dereferenceable(132) %1)
  %6 = load i16, ptr %5, align 2, !tbaa !3
  %7 = icmp eq i16 %6, 10
  br i1 %7, label %8, label %17

8:                                                ; preds = %2
  %9 = call noundef ptr @_ZNK17grpc_event_engine12experimental11EventEngine15ResolvedAddress7addressEv(ptr noundef nonnull align 4 dereferenceable(132) %4)
  %10 = getelementptr inbounds nuw i8, ptr %5, i64 8
  %bcmp20.i = call i32 @bcmp(ptr noundef nonnull dereferenceable(12) %10, ptr noundef nonnull dereferenceable(12) @_ZN17grpc_event_engine12experimental12_GLOBAL__N_115kV4MappedPrefixE, i64 12)
  %.not1921.i = icmp eq i32 %bcmp20.i, 0
  br i1 %.not1921.i, label %_ZN17grpc_event_engine12experimental25ResolvedAddressIsV4MappedERKNS0_11EventEngine15ResolvedAddressEPS2_.exit, label %17

_ZN17grpc_event_engine12experimental25ResolvedAddressIsV4MappedERKNS0_11EventEngine15ResolvedAddressEPS2_.exit: ; preds = %8
  call void @llvm.memset.p0.i64(ptr noundef nonnull align 4 dereferenceable(128) %9, i8 0, i64 128, i1 false)
  store i16 2, ptr %9, align 4, !tbaa !8
  %11 = getelementptr inbounds nuw i8, ptr %9, i64 4
  %12 = getelementptr inbounds nuw i8, ptr %5, i64 20
  %13 = load i32, ptr %12, align 4
  store i32 %13, ptr %11, align 4
  %14 = getelementptr inbounds nuw i8, ptr %5, i64 2
  %15 = load i16, ptr %14, align 2, !tbaa !12
  %16 = getelementptr inbounds nuw i8, ptr %9, i64 2
  store i16 %15, ptr %16, align 2, !tbaa !15
  call void @llvm.lifetime.start.p0(i64 132, ptr nonnull %3) #25
  call void @_ZN17grpc_event_engine12experimental11EventEngine15ResolvedAddressC1EPK8sockaddrj(ptr noundef nonnull align 4 dereferenceable(132) %3, ptr noundef nonnull %9, i32 noundef 16)
  call void @llvm.memcpy.p0.p0.i64(ptr noundef nonnull align 4 dereferenceable(132) %4, ptr noundef nonnull align 4 dereferenceable(132) %3, i64 132, i1 false), !tbaa.struct !16
  call void @llvm.lifetime.end.p0(i64 132, ptr nonnull %3) #25
  br label %18

17:                                               ; preds = %8, %2
  call void @llvm.memcpy.p0.p0.i64(ptr noundef nonnull align 4 dereferenceable(132) %4, ptr noundef nonnull align 4 dereferenceable(132) %1, i64 132, i1 false), !tbaa.struct !16
  br label %18

18:                                               ; preds = %_ZN17grpc_event_engine12experimental25ResolvedAddressIsV4MappedERKNS0_11EventEngine15ResolvedAddressEPS2_.exit, %17
  call void @_ZN17grpc_event_engine12experimental23ResolvedAddressToStringB5cxx11ERKNS0_11EventEngine15ResolvedAddressE(ptr dead_on_unwind writable sret(%"class.absl::lts_20240722::StatusOr") align 8 %0, ptr noundef nonnull align 4 dereferenceable(132) %4)
  call void @llvm.lifetime.end.p0(i64 132, ptr nonnull %4) #25
  ret void
}